target datalayout = "e-m:e-p270:32:32-p271:32:32-p272:64:64-i64:64-i128:128-f80:128-n8:16:32:64-S128"
target triple = "x86_64-pc-linux-gnu"

%struct.ossl_cmp_ctx_st = type { ptr, ptr, ptr, i32, ptr, ptr, ptr, ptr, ptr, i32, ptr, ptr, i32, i32, i32, i32, i64, ptr, ptr, i32, i32, ptr, ptr, ptr, ptr, ptr, i32, i32, i32, ptr, ptr, ptr, ptr, ptr, i64, ptr, i32, i32, ptr, ptr, ptr, ptr, ptr, ptr, ptr, ptr, i32, i32, ptr, ptr, i32, ptr, ptr, i32, ptr, ptr, i32, i32, ptr, ptr, i32, i32, ptr, ptr, i32, ptr, i32, ptr, i32, ptr, ptr, ptr, ptr, ptr, ptr }
%struct.ossl_cmp_msg_st = type { ptr, ptr, ptr, ptr, ptr, ptr }
%struct.ossl_cmp_pkiheader_st = type { ptr, ptr, ptr, ptr, ptr, ptr, ptr, ptr, ptr, ptr, ptr, ptr }
%struct.ossl_cmp_protectedpart_st = type { ptr, ptr }

@.str = private unnamed_addr constant [32 x i8] c"../openssl/crypto/cmp/cmp_vfy.c\00", align 1
@__func__.verify_signature = private unnamed_addr constant [17 x i8] c"verify_signature\00", align 1
@.str.57 = private unnamed_addr constant [2 x i8] c"\0A\00", align 1

; Function Attrs: nounwind uwtable
define internal i32 @verify_signature(ptr noundef %0, ptr noundef %1, ptr noundef %2) #0 {
  %4 = alloca i32, align 4
  %5 = alloca ptr, align 8
  %6 = alloca ptr, align 8
  %7 = alloca ptr, align 8
  %8 = alloca %struct.ossl_cmp_protectedpart_st, align 8
  %9 = alloca ptr, align 8
  %10 = alloca ptr, align 8
  %11 = alloca i32, align 4
  %12 = alloca i32, align 4
  store ptr %0, ptr %5, align 8, !tbaa !3
  store ptr %1, ptr %6, align 8, !tbaa !36
  store ptr %2, ptr %7, align 8, !tbaa !10
  call void @llvm.lifetime.start.p0(i64 16, ptr %8) #5
  call void @llvm.lifetime.start.p0(i64 8, ptr %9) #5
  store ptr null, ptr %9, align 8, !tbaa !70
  call void @llvm.lifetime.start.p0(i64 8, ptr %10) #5
  call void @llvm.lifetime.start.p0(i64 4, ptr %11) #5
  store i32 0, ptr %11, align 4, !tbaa !12
  %13 = load ptr, ptr %5, align 8, !tbaa !3
  %14 = icmp ne ptr %13, null
  br i1 %14, label %15, label %21

15:                                               ; preds = %3
  %16 = load ptr, ptr %6, align 8, !tbaa !36
  %17 = icmp ne ptr %16, null
  br i1 %17, label %18, label %21

18:                                               ; preds = %15
  %19 = load ptr, ptr %7, align 8, !tbaa !10
  %20 = icmp ne ptr %19, null
  br label %21

21:                                               ; preds = %18, %15, %3
  %22 = phi i1 [ false, %15 ], [ false, %3 ], [ %20, %18 ]
  %23 = zext i1 %22 to i32
  %24 = icmp ne i32 %23, 0
  %25 = xor i1 %24, true
  %26 = xor i1 %25, true
  %27 = zext i1 %26 to i32
  %28 = sext i32 %27 to i64
  %29 = call i64 @llvm.expect.i64(i64 %28, i64 1)
  %30 = icmp ne i64 %29, 0
  br i1 %30, label %32, label %31

31:                                               ; preds = %21
  store i32 0, ptr %4, align 4
  store i32 1, ptr %12, align 4
  br label %98

32:                                               ; preds = %21
  %33 = call ptr @BIO_s_mem()
  %34 = call ptr @BIO_new(ptr noundef %33)
  store ptr %34, ptr %10, align 8, !tbaa !71
  %35 = load ptr, ptr %10, align 8, !tbaa !71
  %36 = icmp eq ptr %35, null
  br i1 %36, label %37, label %38

37:                                               ; preds = %32
  store i32 0, ptr %4, align 4
  store i32 1, ptr %12, align 4
  br label %98

38:                                               ; preds = %32
  %39 = load ptr, ptr %5, align 8, !tbaa !3
  %40 = getelementptr inbounds nuw %struct.ossl_cmp_ctx_st, ptr %39, i32 0, i32 26
  %41 = load i32, ptr %40, align 8, !tbaa !73
  %42 = icmp ne i32 %41, 0
  br i1 %42, label %49, label %43

43:                                               ; preds = %38
  %44 = load ptr, ptr %7, align 8, !tbaa !10
  %45 = call i32 @X509_get_key_usage(ptr noundef %44)
  %46 = and i32 %45, 128
  %47 = icmp eq i32 %46, 0
  br i1 %47, label %48, label %49

48:                                               ; preds = %43
  call void @ERR_new()
  call void @ERR_set_debug(ptr noundef @.str, i32 noundef 42, ptr noundef @__func__.verify_signature)
  call void (i32, i32, ptr, ...) @ERR_set_error(i32 noundef 58, i32 noundef 142, ptr noundef null)
  br label %84

49:                                               ; preds = %43, %38
  %50 = load ptr, ptr %7, align 8, !tbaa !10
  %51 = call ptr @X509_get_pubkey(ptr noundef %50)
  store ptr %51, ptr %9, align 8, !tbaa !70
  %52 = load ptr, ptr %9, align 8, !tbaa !70
  %53 = icmp eq ptr %52, null
  br i1 %53, label %54, label %55

54:                                               ; preds = %49
  call void @ERR_new()
  call void @ERR_set_debug(ptr noundef @.str, i32 noundef 48, ptr noundef @__func__.verify_signature)
  call void (i32, i32, ptr, ...) @ERR_set_error(i32 noundef 58, i32 noundef 141, ptr noundef null)
  br label %84

55:                                               ; preds = %49
  %56 = load ptr, ptr %6, align 8, !tbaa !36
  %57 = getelementptr inbounds nuw %struct.ossl_cmp_msg_st, ptr %56, i32 0, i32 0
  %58 = load ptr, ptr %57, align 8, !tbaa !38
  %59 = getelementptr inbounds nuw %struct.ossl_cmp_protectedpart_st, ptr %8, i32 0, i32 0
  store ptr %58, ptr %59, align 8, !tbaa !74
  %60 = load ptr, ptr %6, align 8, !tbaa !36
  %61 = getelementptr inbounds nuw %struct.ossl_cmp_msg_st, ptr %60, i32 0, i32 1
  %62 = load ptr, ptr %61, align 8, !tbaa !42
  %63 = getelementptr inbounds nuw %struct.ossl_cmp_protectedpart_st, ptr %8, i32 0, i32 1
  store ptr %62, ptr %63, align 8, !tbaa !76
  %64 = call ptr @OSSL_CMP_PROTECTEDPART_it()
  %65 = load ptr, ptr %6, align 8, !tbaa !36
  %66 = getelementptr inbounds nuw %struct.ossl_cmp_msg_st, ptr %65, i32 0, i32 0
  %67 = load ptr, ptr %66, align 8, !tbaa !38
  %68 = getelementptr inbounds nuw %struct.ossl_cmp_pkiheader_st, ptr %67, i32 0, i32 4
  %69 = load ptr, ptr %68, align 8, !tbaa !43
  %70 = load ptr, ptr %6, align 8, !tbaa !36
  %71 = getelementptr inbounds nuw %struct.ossl_cmp_msg_st, ptr %70, i32 0, i32 2
  %72 = load ptr, ptr %71, align 8, !tbaa !47
  %73 = load ptr, ptr %9, align 8, !tbaa !70
  %74 = load ptr, ptr %5, align 8, !tbaa !3
  %75 = getelementptr inbounds nuw %struct.ossl_cmp_ctx_st, ptr %74, i32 0, i32 0
  %76 = load ptr, ptr %75, align 8, !tbaa !16
  %77 = load ptr, ptr %5, align 8, !tbaa !3
  %78 = getelementptr inbounds nuw %struct.ossl_cmp_ctx_st, ptr %77, i32 0, i32 1
  %79 = load ptr, ptr %78, align 8, !tbaa !33
  %80 = call i32 @ASN1_item_verify_ex(ptr noundef %64, ptr noundef %69, ptr noundef %72, ptr noundef %8, ptr noundef null, ptr noundef %73, ptr noundef %76, ptr noundef %79)
  %81 = icmp sgt i32 %80, 0
  br i1 %81, label %82, label %83

82:                                               ; preds = %55
  store i32 1, ptr %11, align 4, !tbaa !12
  br label %93

83:                                               ; preds = %55
  br label %84

84:                                               ; preds = %83, %54, %48
  %85 = load ptr, ptr %10, align 8, !tbaa !71
  %86 = load ptr, ptr %7, align 8, !tbaa !10
  %87 = call i32 @ossl_x509_print_ex_brief(ptr noundef %85, ptr noundef %86, i64 noundef 256)
  store i32 %87, ptr %11, align 4, !tbaa !12
  call void @ERR_new()
  call void @ERR_set_debug(ptr noundef @.str, i32 noundef 65, ptr noundef @__func__.verify_signature)
  call void (i32, i32, ptr, ...) @ERR_set_error(i32 noundef 58, i32 noundef 171, ptr noundef null)
  %88 = load i32, ptr %11, align 4, !tbaa !12
  %89 = icmp ne i32 %88, 0
  br i1 %89, label %90, label %92

90:                                               ; preds = %84
  %91 = load ptr, ptr %10, align 8, !tbaa !71
  call void @ERR_add_error_mem_bio(ptr noundef @.str.57, ptr noundef %91)
  br label %92

92:                                               ; preds = %90, %84
  store i32 0, ptr %11, align 4, !tbaa !12
  br label %93

93:                                               ; preds = %92, %82
  %94 = load ptr, ptr %9, align 8, !tbaa !70
  call void @EVP_PKEY_free(ptr noundef %94)
  %95 = load ptr, ptr %10, align 8, !tbaa !71
  %96 = call i32 @BIO_free(ptr noundef %95)
  %97 = load i32, ptr %11, align 4, !tbaa !12
  store i32 %97, ptr %4, align 4
  store i32 1, ptr %12, align 4
  br label %98

98:                                               ; preds = %93, %37, %31
  call void @llvm.lifetime.end.p0(i64 4, ptr %11) #5
  call void @llvm.lifetime.end.p0(i64 8, ptr %10) #5
  call void @llvm.lifetime.end.p0(i64 8, ptr %9) #5
  call void @llvm.lifetime.end.p0(i64 16, ptr %8) #5
  %99 = load i32, ptr %4, align 4
  ret i32 %99
}