; Function Attrs: nounwind uwtable
define internal fastcc range(i32 0, 2) i32 @verify_signature(ptr noundef nonnull readonly captures(none) %0, ptr noundef nonnull readonly captures(none) %1, ptr noundef nonnull %2) unnamed_addr #0 {
  %4 = alloca %struct.ossl_cmp_protectedpart_st, align 8
  call void @llvm.lifetime.start.p0(i64 16, ptr nonnull %4) #3
  %5 = tail call ptr @BIO_s_mem() #3
  %6 = tail call ptr @BIO_new(ptr noundef %5) #3
  %7 = icmp eq ptr %6, null
  br i1 %7, label %39, label %8

8:                                                ; preds = %3
  %9 = getelementptr inbounds nuw i8, ptr %0, i64 184
  %10 = load i32, ptr %9, align 8, !tbaa !55
  %.not = icmp eq i32 %10, 0
  br i1 %.not, label %11, label %15

11:                                               ; preds = %8
  %12 = tail call i32 @X509_get_key_usage(ptr noundef nonnull %2) #3
  %13 = and i32 %12, 128
  %14 = icmp eq i32 %13, 0
  br i1 %14, label %.sink.split, label %15

15:                                               ; preds = %11, %8
  %16 = tail call ptr @X509_get_pubkey(ptr noundef nonnull %2) #3
  %17 = icmp eq ptr %16, null
  br i1 %17, label %.sink.split, label %18

18:                                               ; preds = %15
  %19 = load ptr, ptr %1, align 8, !tbaa !28
  store ptr %19, ptr %4, align 8, !tbaa !56
  %20 = getelementptr inbounds nuw i8, ptr %1, i64 8
  %21 = load ptr, ptr %20, align 8, !tbaa !32
  %22 = getelementptr inbounds nuw i8, ptr %4, i64 8
  store ptr %21, ptr %22, align 8, !tbaa !58
  %23 = tail call ptr @OSSL_CMP_PROTECTEDPART_it() #3
  %24 = load ptr, ptr %1, align 8, !tbaa !28
  %25 = getelementptr inbounds nuw i8, ptr %24, i64 32
  %26 = load ptr, ptr %25, align 8, !tbaa !33
  %27 = getelementptr inbounds nuw i8, ptr %1, i64 16
  %28 = load ptr, ptr %27, align 8, !tbaa !37
  %29 = load ptr, ptr %0, align 8, !tbaa !3
  %30 = getelementptr inbounds nuw i8, ptr %0, i64 8
  %31 = load ptr, ptr %30, align 8, !tbaa !26
  %32 = call i32 @ASN1_item_verify_ex(ptr noundef %23, ptr noundef %26, ptr noundef %28, ptr noundef nonnull %4, ptr noundef null, ptr noundef nonnull %16, ptr noundef %29, ptr noundef %31) #3
  %33 = icmp sgt i32 %32, 0
  br i1 %33, label %37, label %34

.sink.split:                                      ; preds = %15, %11
  %.sink29 = phi i32 [ 42, %11 ], [ 48, %15 ]
  %.sink = phi i32 [ 142, %11 ], [ 141, %15 ]
  tail call void @ERR_new() #3
  tail call void @ERR_set_debug(ptr noundef nonnull @.str, i32 noundef %.sink29, ptr noundef nonnull @__func__.verify_signature) #3
  tail call void (i32, i32, ptr, ...) @ERR_set_error(i32 noundef 58, i32 noundef %.sink, ptr noundef null) #3
  br label %34

34:                                               ; preds = %.sink.split, %18
  %.024 = phi ptr [ %16, %18 ], [ null, %.sink.split ]
  %35 = call i32 @ossl_x509_print_ex_brief(ptr noundef nonnull %6, ptr noundef nonnull %2, i64 noundef 256) #3
  call void @ERR_new() #3
  call void @ERR_set_debug(ptr noundef nonnull @.str, i32 noundef 65, ptr noundef nonnull @__func__.verify_signature) #3
  call void (i32, i32, ptr, ...) @ERR_set_error(i32 noundef 58, i32 noundef 171, ptr noundef null) #3
  %.not28 = icmp eq i32 %35, 0
  br i1 %.not28, label %37, label %36

36:                                               ; preds = %34
  call void @ERR_add_error_mem_bio(ptr noundef nonnull @.str.57, ptr noundef nonnull %6) #3
  br label %37

37:                                               ; preds = %34, %36, %18
  %.1 = phi ptr [ %16, %18 ], [ %.024, %36 ], [ %.024, %34 ]
  %.0 = phi i32 [ 1, %18 ], [ 0, %36 ], [ 0, %34 ]
  call void @EVP_PKEY_free(ptr noundef %.1) #3
  %38 = call i32 @BIO_free(ptr noundef nonnull %6) #3
  br label %39

39:                                               ; preds = %3, %37
  %.023 = phi i32 [ %.0, %37 ], [ 0, %3 ]
  call void @llvm.lifetime.end.p0(i64 16, ptr nonnull %4) #3
  ret i32 %.023
}